---
triple:          'arm64-apple-darwin'
binary-path:     mizi
relocations:
  - { offsetInCU: 0xA8E9, offset: 0xA8E9, size: 0x8, addend: 0x0, symName: __ZNSt3__124__put_character_sequenceB8ue170006IcNS_11char_traitsIcEEEERNS_13basic_ostreamIT_T0_EES7_PKS4_m, symObjAddr: 0x1CB4, symBinAddr: 0x100003634, symSize: 0x164 }
  - { offsetInCU: 0xD8C1, offset: 0xD8C1, size: 0x8, addend: 0x0, symName: __ZNSt3__17getlineB8ue170006IcNS_11char_traitsIcEENS_9allocatorIcEEEERNS_13basic_istreamIT_T0_EES9_RNS_12basic_stringIS6_S7_T1_EES6_, symObjAddr: 0x1A84, symBinAddr: 0x100003404, symSize: 0x1A8 }
  - { offsetInCU: 0xE9A3, offset: 0xE9A3, size: 0x8, addend: 0x0, symName: __ZNSt3__120__throw_length_errorB8ue170006EPKc, symObjAddr: 0x1A10, symBinAddr: 0x100003390, symSize: 0x50 }
  - { offsetInCU: 0xE9E2, offset: 0xE9E2, size: 0x8, addend: 0x0, symName: __ZNSt3__120__throw_out_of_rangeB8ue170006EPKc, symObjAddr: 0x1C40, symBinAddr: 0x1000035C0, symSize: 0x50 }
  - { offsetInCU: 0xEA20, offset: 0xEA20, size: 0x8, addend: 0x0, symName: __ZNSt3__116__pad_and_outputB8ue170006IcNS_11char_traitsIcEEEENS_19ostreambuf_iteratorIT_T0_EES6_PKS4_S8_S8_RNS_8ios_baseES4_, symObjAddr: 0x1E18, symBinAddr: 0x100003798, symSize: 0x1A0 }
  - { offsetInCU: 0x1238F, offset: 0x1238F, size: 0x8, addend: 0x0, symName: __Z14createCategoryPP8CategoryNSt3__112basic_stringIcNS2_11char_traitsIcEENS2_9allocatorIcEEEEi, symObjAddr: 0x0, symBinAddr: 0x100001980, symSize: 0x54 }
  - { offsetInCU: 0x12E8E, offset: 0x12E8E, size: 0x8, addend: 0x0, symName: __Z16createCategoriesPP8CategoryPiNSt3__112basic_stringIcNS3_11char_traitsIcEENS3_9allocatorIcEEEES9_P15TemplateManager, symObjAddr: 0x54, symBinAddr: 0x1000019D4, symSize: 0xEC0 }
  - { offsetInCU: 0x187B7, offset: 0x187B7, size: 0x8, addend: 0x0, symName: __ZNSt3__114basic_ifstreamIcNS_11char_traitsIcEEEC1ERKNS_12basic_stringIcS2_NS_9allocatorIcEEEEj, symObjAddr: 0xF14, symBinAddr: 0x100002894, symSize: 0x118 }
  - { offsetInCU: 0x18B5A, offset: 0x18B5A, size: 0x8, addend: 0x0, symName: __ZNKSt3__112basic_stringIcNS_11char_traitsIcEENS_9allocatorIcEEE20__throw_length_errorB8ue170006Ev, symObjAddr: 0x19FC, symBinAddr: 0x10000337C, symSize: 0x14 }
  - { offsetInCU: 0x18B84, offset: 0x18B84, size: 0x8, addend: 0x0, symName: __ZNSt3__120__throw_length_errorB8ue170006EPKc, symObjAddr: 0x1A10, symBinAddr: 0x100003390, symSize: 0x50 }
  - { offsetInCU: 0x18B8F, offset: 0x18B8F, size: 0x8, addend: 0x0, symName: __ZNKSt3__112basic_stringIcNS_11char_traitsIcEENS_9allocatorIcEEE20__throw_out_of_rangeB8ue170006Ev, symObjAddr: 0x1C2C, symBinAddr: 0x1000035AC, symSize: 0x14 }
  - { offsetInCU: 0x18BB9, offset: 0x18BB9, size: 0x8, addend: 0x0, symName: __ZNSt3__120__throw_out_of_rangeB8ue170006EPKc, symObjAddr: 0x1C40, symBinAddr: 0x1000035C0, symSize: 0x50 }
  - { offsetInCU: 0x18BC4, offset: 0x18BC4, size: 0x8, addend: 0x0, symName: __ZNSt3__114basic_ifstreamIcNS_11char_traitsIcEEED1Ev, symObjAddr: 0x1044, symBinAddr: 0x1000029C4, symSize: 0x58 }
  - { offsetInCU: 0x18CA8, offset: 0x18CA8, size: 0x8, addend: 0x0, symName: __Z7addPageP8CategoryP4Page, symObjAddr: 0x102C, symBinAddr: 0x1000029AC, symSize: 0x18 }
  - { offsetInCU: 0x18DDB, offset: 0x18DDB, size: 0x8, addend: 0x0, symName: __Z12printContentPP8Categoryi, symObjAddr: 0x109C, symBinAddr: 0x100002A1C, symSize: 0x56C }
  - { offsetInCU: 0x1A70F, offset: 0x1A70F, size: 0x8, addend: 0x0, symName: __ZN4PageC2ERKS_, symObjAddr: 0x1608, symBinAddr: 0x100002F88, symSize: 0x3E8 }
  - { offsetInCU: 0x1BB34, offset: 0x1BB34, size: 0x8, addend: 0x0, symName: __ZNSt12length_errorC1B8ue170006EPKc, symObjAddr: 0x1A60, symBinAddr: 0x1000033E0, symSize: 0x24 }
  - { offsetInCU: 0x1BC88, offset: 0x1BC88, size: 0x8, addend: 0x0, symName: __ZNSt12out_of_rangeC1B8ue170006EPKc, symObjAddr: 0x1C90, symBinAddr: 0x100003610, symSize: 0x24 }
  - { offsetInCU: 0x52, offset: 0x1BF77, size: 0x8, addend: 0x0, symName: _defaultConfig, symObjAddr: 0x42818, symBinAddr: 0x100020000, symSize: 0x0 }
  - { offsetInCU: 0xB6E0, offset: 0x27605, size: 0x8, addend: 0x0, symName: __ZNSt3__1eqB8ue170006IcNS_11char_traitsIcEENS_9allocatorIcEEEEbRKNS_12basic_stringIT_T0_T1_EEPKS6_, symObjAddr: 0xC28, symBinAddr: 0x1000043B8, symSize: 0x90 }
  - { offsetInCU: 0xB84A, offset: 0x2776F, size: 0x8, addend: 0x0, symName: __ZNSt3__14endlB8ue170006IcNS_11char_traitsIcEEEERNS_13basic_ostreamIT_T0_EES7_, symObjAddr: 0xCB8, symBinAddr: 0x100004448, symSize: 0x90 }
  - { offsetInCU: 0xEB18, offset: 0x2AA3D, size: 0x8, addend: 0x0, symName: __Z12configParserv, symObjAddr: 0x0, symBinAddr: 0x100003938, symSize: 0x83C }
  - { offsetInCU: 0x10A02, offset: 0x2C927, size: 0x8, addend: 0x0, symName: __ZNSt3__114basic_ifstreamIcNS_11char_traitsIcEEEC1EPKcj, symObjAddr: 0x83C, symBinAddr: 0x100004174, symSize: 0x10C }
  - { offsetInCU: 0x10AFB, offset: 0x2CA20, size: 0x8, addend: 0x0, symName: __ZNSt3__119basic_istringstreamIcNS_11char_traitsIcEENS_9allocatorIcEEEC1B8ue170006ERKNS_12basic_stringIcS2_S4_EEj, symObjAddr: 0x948, symBinAddr: 0x100004280, symSize: 0x138 }
  - { offsetInCU: 0x10D4F, offset: 0x2CC74, size: 0x8, addend: 0x0, symName: __ZNSt3__119basic_istringstreamIcNS_11char_traitsIcEENS_9allocatorIcEEED1Ev, symObjAddr: 0xD48, symBinAddr: 0x1000044D8, symSize: 0x84 }
  - { offsetInCU: 0x11003, offset: 0x2CF28, size: 0x8, addend: 0x0, symName: __ZNSt3__115basic_stringbufIcNS_11char_traitsIcEENS_9allocatorIcEEE15__init_buf_ptrsB8ue170006Ev, symObjAddr: 0xEB8, symBinAddr: 0x10000455C, symSize: 0x130 }
  - { offsetInCU: 0x26, offset: 0x2D6A7, size: 0x8, addend: 0x0, symName: __Z9html_headP6ConfigNSt3__112basic_stringIcNS1_11char_traitsIcEENS1_9allocatorIcEEEE, symObjAddr: 0x0, symBinAddr: 0x1000046F4, symSize: 0xD60 }
  - { offsetInCU: 0x4CE2, offset: 0x32363, size: 0x8, addend: 0x0, symName: __Z9html_headP6ConfigNSt3__112basic_stringIcNS1_11char_traitsIcEENS1_9allocatorIcEEEE, symObjAddr: 0x0, symBinAddr: 0x1000046F4, symSize: 0xD60 }
  - { offsetInCU: 0x26, offset: 0x37A9B, size: 0x8, addend: 0x0, symName: __Z9getHeaderP6Config, symObjAddr: 0x0, symBinAddr: 0x100005454, symSize: 0x8C }
  - { offsetInCU: 0x4ACF, offset: 0x3C544, size: 0x8, addend: 0x0, symName: __Z9getHeaderP6Config, symObjAddr: 0x0, symBinAddr: 0x100005454, symSize: 0x8C }
  - { offsetInCU: 0x4DE4, offset: 0x3C859, size: 0x8, addend: 0x0, symName: __Z9getFooterP6Config, symObjAddr: 0x8C, symBinAddr: 0x1000054E0, symSize: 0x8C }
  - { offsetInCU: 0xD4F7, offset: 0x4A0FA, size: 0x8, addend: 0x0, symName: __ZSt28__throw_bad_array_new_lengthB8ue170006v, symObjAddr: 0x2360, symBinAddr: 0x1000076D4, symSize: 0x28 }
  - { offsetInCU: 0xFA96, offset: 0x4C699, size: 0x8, addend: 0x0, symName: __Z8getLowerc, symObjAddr: 0x0, symBinAddr: 0x10000556C, symSize: 0x18 }
  - { offsetInCU: 0xFCF3, offset: 0x4C8F6, size: 0x8, addend: 0x0, symName: __Z11toLowerCaseNSt3__112basic_stringIcNS_11char_traitsIcEENS_9allocatorIcEEEE, symObjAddr: 0x18, symBinAddr: 0x100005584, symSize: 0x180 }
  - { offsetInCU: 0x103DE, offset: 0x4CFE1, size: 0x8, addend: 0x0, symName: __Z10printErroriNSt3__112basic_stringIcNS_11char_traitsIcEENS_9allocatorIcEEEE, symObjAddr: 0x198, symBinAddr: 0x100005704, symSize: 0xE4 }
  - { offsetInCU: 0x109D0, offset: 0x4D5D3, size: 0x8, addend: 0x0, symName: __Z9tokenizerNSt3__112basic_stringIcNS_11char_traitsIcEENS_9allocatorIcEEEERKS5_, symObjAddr: 0x27C, symBinAddr: 0x1000057E8, symSize: 0x458 }
  - { offsetInCU: 0x11C13, offset: 0x4E816, size: 0x8, addend: 0x0, symName: __ZNSt3__16vectorINS_12basic_stringIcNS_11char_traitsIcEENS_9allocatorIcEEEENS4_IS6_EEE21__push_back_slow_pathIS6_EEvOT_, symObjAddr: 0x2714, symBinAddr: 0x1000076FC, symSize: 0x168 }
  - { offsetInCU: 0x1227F, offset: 0x4EE82, size: 0x8, addend: 0x0, symName: __ZNKSt3__16vectorINS_12basic_stringIcNS_11char_traitsIcEENS_9allocatorIcEEEENS4_IS6_EEE20__throw_length_errorB8ue170006Ev, symObjAddr: 0x287C, symBinAddr: 0x100007864, symSize: 0x14 }
  - { offsetInCU: 0x122D9, offset: 0x4EEDC, size: 0x8, addend: 0x0, symName: __ZNSt3__16vectorINS_12basic_stringIcNS_11char_traitsIcEENS_9allocatorIcEEEENS4_IS6_EEED1B8ue170006Ev, symObjAddr: 0x6D4, symBinAddr: 0x100005C40, symSize: 0x6C }
  - { offsetInCU: 0x128AA, offset: 0x4F4AD, size: 0x8, addend: 0x0, symName: __Z10parseLinksNSt3__112basic_stringIcNS_11char_traitsIcEENS_9allocatorIcEEEES5_P15TemplateManager, symObjAddr: 0x740, symBinAddr: 0x100005CAC, symSize: 0x10EC }
  - { offsetInCU: 0x18530, offset: 0x55133, size: 0x8, addend: 0x0, symName: __Z25checkProjectFileStructureP6Config, symObjAddr: 0x182C, symBinAddr: 0x100006D98, symSize: 0x240 }
  - { offsetInCU: 0x1959B, offset: 0x5619E, size: 0x8, addend: 0x0, symName: __Z15createFileIfDNENSt3__112basic_stringIcNS_11char_traitsIcEENS_9allocatorIcEEEES5_, symObjAddr: 0x1A6C, symBinAddr: 0x100006FD8, symSize: 0x384 }
  - { offsetInCU: 0x1A358, offset: 0x56F5B, size: 0x8, addend: 0x0, symName: __ZNSt3__113basic_fstreamIcNS_11char_traitsIcEEEC1EPKcj, symObjAddr: 0x1EFC, symBinAddr: 0x10000735C, symSize: 0x110 }
  - { offsetInCU: 0x1A44E, offset: 0x57051, size: 0x8, addend: 0x0, symName: __ZNSt3__113basic_fstreamIcNS_11char_traitsIcEEED1Ev, symObjAddr: 0x200C, symBinAddr: 0x10000746C, symSize: 0x68 }
  - { offsetInCU: 0x1A54A, offset: 0x5714D, size: 0x8, addend: 0x0, symName: __ZThn16_NSt3__113basic_fstreamIcNS_11char_traitsIcEEED1Ev, symObjAddr: 0x20CC, symBinAddr: 0x1000074D4, symSize: 0x5C }
  - { offsetInCU: 0x1A5A6, offset: 0x571A9, size: 0x8, addend: 0x0, symName: __ZTv0_n24_NSt3__113basic_fstreamIcNS_11char_traitsIcEEED1Ev, symObjAddr: 0x2128, symBinAddr: 0x100007530, symSize: 0x68 }
  - { offsetInCU: 0x1A600, offset: 0x57203, size: 0x8, addend: 0x0, symName: __ZNSt3__113basic_fstreamIcNS_11char_traitsIcEEED0Ev, symObjAddr: 0x2190, symBinAddr: 0x100007598, symSize: 0x68 }
  - { offsetInCU: 0x1A67F, offset: 0x57282, size: 0x8, addend: 0x0, symName: __ZThn16_NSt3__113basic_fstreamIcNS_11char_traitsIcEEED0Ev, symObjAddr: 0x21F8, symBinAddr: 0x100007600, symSize: 0x64 }
  - { offsetInCU: 0x1A6F9, offset: 0x572FC, size: 0x8, addend: 0x0, symName: __ZTv0_n24_NSt3__113basic_fstreamIcNS_11char_traitsIcEEED0Ev, symObjAddr: 0x225C, symBinAddr: 0x100007664, symSize: 0x70 }
  - { offsetInCU: 0x1AC7A, offset: 0x5787D, size: 0x8, addend: 0x0, symName: __ZNKSt3__16vectorINS_12basic_stringIcNS_11char_traitsIcEENS_9allocatorIcEEEENS4_IS6_EEE20__throw_length_errorB8ue170006Ev, symObjAddr: 0x287C, symBinAddr: 0x100007864, symSize: 0x14 }
  - { offsetInCU: 0xDB37, offset: 0x6554B, size: 0x8, addend: 0x0, symName: __Z9buildHomeP6ConfigPP8CategoryiNSt3__112basic_stringIcNS4_11char_traitsIcEENS4_9allocatorIcEEEE, symObjAddr: 0x0, symBinAddr: 0x100007878, symSize: 0x734 }
  - { offsetInCU: 0x1003C, offset: 0x67A50, size: 0x8, addend: 0x0, symName: __ZNSt3__114basic_ofstreamIcNS_11char_traitsIcEEED1Ev, symObjAddr: 0x734, symBinAddr: 0x100007FAC, symSize: 0x58 }
  - { offsetInCU: 0xAB91, offset: 0x729BC, size: 0x8, addend: 0x0, symName: __ZNSt3__1plB8ue170006IcNS_11char_traitsIcEENS_9allocatorIcEEEENS_12basic_stringIT_T0_T1_EERKS9_SB_, symObjAddr: 0xC18, symBinAddr: 0x100008C1C, symSize: 0x110 }
  - { offsetInCU: 0xDC68, offset: 0x75A93, size: 0x8, addend: 0x0, symName: __Z10createPageNSt3__112basic_stringIcNS_11char_traitsIcEENS_9allocatorIcEEEE, symObjAddr: 0x0, symBinAddr: 0x100008004, symSize: 0x4C }
  - { offsetInCU: 0xDD75, offset: 0x75BA0, size: 0x8, addend: 0x0, symName: __Z7addPartP4PageNSt3__112basic_stringIcNS1_11char_traitsIcEENS1_9allocatorIcEEEE, symObjAddr: 0x4C, symBinAddr: 0x100008050, symSize: 0x3C }
  - { offsetInCU: 0xE299, offset: 0x760C4, size: 0x8, addend: 0x0, symName: __Z9buildPageP6ConfigP4PageNSt3__112basic_stringIcNS3_11char_traitsIcEENS3_9allocatorIcEEEE, symObjAddr: 0x88, symBinAddr: 0x10000808C, symSize: 0xB90 }
  - { offsetInCU: 0x7B53, offset: 0x81E9F, size: 0x8, addend: 0x0, symName: __Z10createSiteNSt3__112basic_stringIcNS_11char_traitsIcEENS_9allocatorIcEEEES5_, symObjAddr: 0x0, symBinAddr: 0x100008D2C, symSize: 0x608 }
  - { offsetInCU: 0x14D71, offset: 0x99477, size: 0x8, addend: 0x0, symName: __ZNSt3__135__uninitialized_allocator_copy_implB8ue170006INS_9allocatorINS_12basic_stringIcNS_11char_traitsIcEENS1_IcEEEEEEPS6_S8_S8_EET2_RT_T0_T1_S9_, symObjAddr: 0x1E38, symBinAddr: 0x10000ACA4, symSize: 0x124 }
  - { offsetInCU: 0x19169, offset: 0x9D86F, size: 0x8, addend: 0x0, symName: __ZN15TemplateManagerC2ENSt3__112basic_stringIcNS0_11char_traitsIcEENS0_9allocatorIcEEEE, symObjAddr: 0x0, symBinAddr: 0x100009334, symSize: 0x120 }
  - { offsetInCU: 0x198FD, offset: 0x9E003, size: 0x8, addend: 0x0, symName: __ZN15TemplateManager18provisionTemplatesENSt3__112basic_stringIcNS0_11char_traitsIcEENS0_9allocatorIcEEEE, symObjAddr: 0x120, symBinAddr: 0x100009454, symSize: 0x6C8 }
  - { offsetInCU: 0x1CAE2, offset: 0xA11E8, size: 0x8, addend: 0x0, symName: __ZNSt3__16vectorINS_12basic_stringIcNS_11char_traitsIcEENS_9allocatorIcEEEENS4_IS6_EEE18__assign_with_sizeB8ue170006IPS6_SA_EEvT_T0_l, symObjAddr: 0x1C28, symBinAddr: 0x10000AA94, symSize: 0x210 }
  - { offsetInCU: 0x1D4E1, offset: 0xA1BE7, size: 0x8, addend: 0x0, symName: __Z27parseAndSaveTemplateContentP8TemplateNSt3__112basic_stringIcNS1_11char_traitsIcEENS1_9allocatorIcEEEEb, symObjAddr: 0x970, symBinAddr: 0x100009B20, symSize: 0x6CC }
  - { offsetInCU: 0x1FC85, offset: 0xA438B, size: 0x8, addend: 0x0, symName: __ZNSt3__112__hash_tableINS_17__hash_value_typeINS_12basic_stringIcNS_11char_traitsIcEENS_9allocatorIcEEEEP8TemplateEENS_22__unordered_map_hasherIS7_SA_NS_4hashIS7_EENS_8equal_toIS7_EELb1EEENS_21__unordered_map_equalIS7_SA_SF_SD_Lb1EEENS5_ISA_EEE25__emplace_unique_key_argsIS7_JNS_4pairIS7_S9_EEEEENSM_INS_15__hash_iteratorIPNS_11__hash_nodeISA_PvEEEEbEERKT_DpOT0_, symObjAddr: 0x1FD8, symBinAddr: 0x10000AE30, symSize: 0x314 }
  - { offsetInCU: 0x2063A, offset: 0xA4D40, size: 0x8, addend: 0x0, symName: __ZN15TemplateManagerC1ENSt3__112basic_stringIcNS0_11char_traitsIcEENS0_9allocatorIcEEEE, symObjAddr: 0x7E8, symBinAddr: 0x100009B1C, symSize: 0x4 }
  - { offsetInCU: 0x20677, offset: 0xA4D7D, size: 0x8, addend: 0x0, symName: __ZN15TemplateManagerC1ENSt3__112basic_stringIcNS0_11char_traitsIcEENS0_9allocatorIcEEEE, symObjAddr: 0x7E8, symBinAddr: 0x100009B1C, symSize: 0x4 }
  - { offsetInCU: 0x20E58, offset: 0xA555E, size: 0x8, addend: 0x0, symName: __ZNSt3__114__split_bufferINS_12basic_stringIcNS_11char_traitsIcEENS_9allocatorIcEEEERNS4_IS6_EEED1Ev, symObjAddr: 0x364C, symBinAddr: 0x10000C038, symSize: 0x5C }
  - { offsetInCU: 0x20E6C, offset: 0xA5572, size: 0x8, addend: 0x0, symName: __ZNSt3__16vectorINS_12basic_stringIcNS_11char_traitsIcEENS_9allocatorIcEEEENS4_IS6_EEE21__push_back_slow_pathIRKS6_EEvOT_, symObjAddr: 0x36A8, symBinAddr: 0x10000C094, symSize: 0x22C }
  - { offsetInCU: 0x21908, offset: 0xA600E, size: 0x8, addend: 0x0, symName: __ZN15TemplateManager22renderTemplateFromTextENSt3__112basic_stringIcNS0_11char_traitsIcEENS0_9allocatorIcEEEE, symObjAddr: 0x1094, symBinAddr: 0x10000A1EC, symSize: 0x420 }
  - { offsetInCU: 0x23880, offset: 0xA7F86, size: 0x8, addend: 0x0, symName: __ZNSt3__16vectorINS_12basic_stringIcNS_11char_traitsIcEENS_9allocatorIcEEEENS4_IS6_EEEC2ERKS8_, symObjAddr: 0x2CA8, symBinAddr: 0x10000B7FC, symSize: 0xD4 }
  - { offsetInCU: 0x23B2E, offset: 0xA8234, size: 0x8, addend: 0x0, symName: __Z27generateTemplateArgValueMapNSt3__16vectorINS_12basic_stringIcNS_11char_traitsIcEENS_9allocatorIcEEEENS4_IS6_EEEE, symObjAddr: 0x14B4, symBinAddr: 0x10000A60C, symSize: 0x108 }
  - { offsetInCU: 0x2409F, offset: 0xA87A5, size: 0x8, addend: 0x0, symName: __ZNSt3__112__hash_tableINS_17__hash_value_typeINS_12basic_stringIcNS_11char_traitsIcEENS_9allocatorIcEEEEP8TemplateEENS_22__unordered_map_hasherIS7_SA_NS_4hashIS7_EENS_8equal_toIS7_EELb1EEENS_21__unordered_map_equalIS7_SA_SF_SD_Lb1EEENS5_ISA_EEE4findIS7_EENS_15__hash_iteratorIPNS_11__hash_nodeISA_PvEEEERKT_, symObjAddr: 0x2D7C, symBinAddr: 0x10000B8D0, symSize: 0x1A4 }
  - { offsetInCU: 0x243C9, offset: 0xA8ACF, size: 0x8, addend: 0x0, symName: __Z14renderTemplateP8TemplatePNSt3__113unordered_mapINS1_12basic_stringIcNS1_11char_traitsIcEENS1_9allocatorIcEEEES8_NS1_4hashIS8_EENS1_8equal_toIS8_EENS6_INS1_4pairIKS8_S8_EEEEEE, symObjAddr: 0x15DC, symBinAddr: 0x10000A734, symSize: 0x1BC }
  - { offsetInCU: 0x25179, offset: 0xA987F, size: 0x8, addend: 0x0, symName: __ZNSt3__14pairINS_12basic_stringIcNS_11char_traitsIcEENS_9allocatorIcEEEES6_EC2B8ue170006IRS6_S9_LPv0EEEOT_OT0_, symObjAddr: 0x17F0, symBinAddr: 0x10000A93C, symSize: 0x158 }
  - { offsetInCU: 0x25999, offset: 0xAA09F, size: 0x8, addend: 0x0, symName: __ZNSt3__112__hash_tableINS_17__hash_value_typeINS_12basic_stringIcNS_11char_traitsIcEENS_9allocatorIcEEEES7_EENS_22__unordered_map_hasherIS7_S8_NS_4hashIS7_EENS_8equal_toIS7_EELb1EEENS_21__unordered_map_equalIS7_S8_SD_SB_Lb1EEENS5_IS8_EEE25__emplace_unique_key_argsIS7_JNS_4pairIS7_S7_EEEEENSK_INS_15__hash_iteratorIPNS_11__hash_nodeIS8_PvEEEEbEERKT_DpOT0_, symObjAddr: 0x2F20, symBinAddr: 0x10000BA74, symSize: 0x328 }
  - { offsetInCU: 0x261FE, offset: 0xAA904, size: 0x8, addend: 0x0, symName: __ZNSt3__14pairINS_12basic_stringIcNS_11char_traitsIcEENS_9allocatorIcEEEES6_ED1Ev, symObjAddr: 0x1798, symBinAddr: 0x10000A8F0, symSize: 0x4C }
  - { offsetInCU: 0x2645B, offset: 0xAAB61, size: 0x8, addend: 0x0, symName: __ZN15TemplateManager11getTemplateENSt3__112basic_stringIcNS0_11char_traitsIcEENS0_9allocatorIcEEEE, symObjAddr: 0x15BC, symBinAddr: 0x10000A714, symSize: 0x20 }
  - { offsetInCU: 0x26699, offset: 0xAAD9F, size: 0x8, addend: 0x0, symName: __ZNSt3__112__hash_tableINS_17__hash_value_typeINS_12basic_stringIcNS_11char_traitsIcEENS_9allocatorIcEEEES7_EENS_22__unordered_map_hasherIS7_S8_NS_4hashIS7_EENS_8equal_toIS7_EELb1EEENS_21__unordered_map_equalIS7_S8_SD_SB_Lb1EEENS5_IS8_EEE4findIS7_EENS_15__hash_iteratorIPNS_11__hash_nodeIS8_PvEEEERKT_, symObjAddr: 0x38D4, symBinAddr: 0x10000C2C0, symSize: 0x1A4 }
  - { offsetInCU: 0x26D2C, offset: 0xAB432, size: 0x8, addend: 0x0, symName: __ZNSt3__112__hash_tableINS_17__hash_value_typeINS_12basic_stringIcNS_11char_traitsIcEENS_9allocatorIcEEEEP8TemplateEENS_22__unordered_map_hasherIS7_SA_NS_4hashIS7_EENS_8equal_toIS7_EELb1EEENS_21__unordered_map_equalIS7_SA_SF_SD_Lb1EEENS5_ISA_EEE25__emplace_unique_key_argsIS7_JNS_4pairIS7_S9_EEEEENSM_INS_15__hash_iteratorIPNS_11__hash_nodeISA_PvEEEEbEERKT_DpOT0_, symObjAddr: 0x1FD8, symBinAddr: 0x10000AE30, symSize: 0x314 }
  - { offsetInCU: 0x26E08, offset: 0xAB50E, size: 0x8, addend: 0x0, symName: __ZNSt3__128__exception_guard_exceptionsINS_29_AllocatorDestroyRangeReverseINS_9allocatorINS_12basic_stringIcNS_11char_traitsIcEENS2_IcEEEEEEPS7_EEED1B8ue170006Ev, symObjAddr: 0x1F5C, symBinAddr: 0x10000ADC8, symSize: 0x68 }
  - { offsetInCU: 0x27575, offset: 0xABC7B, size: 0x8, addend: 0x0, symName: __ZNKSt3__121__murmur2_or_cityhashImLm64EEclB8ue170006EPKvm, symObjAddr: 0x2338, symBinAddr: 0x10000B190, symSize: 0x438 }
  - { offsetInCU: 0x27F95, offset: 0xAC69B, size: 0x8, addend: 0x0, symName: __ZNSt3__112__hash_tableINS_17__hash_value_typeINS_12basic_stringIcNS_11char_traitsIcEENS_9allocatorIcEEEEP8TemplateEENS_22__unordered_map_hasherIS7_SA_NS_4hashIS7_EENS_8equal_toIS7_EELb1EEENS_21__unordered_map_equalIS7_SA_SF_SD_Lb1EEENS5_ISA_EEE8__rehashILb1EEEvm, symObjAddr: 0x2770, symBinAddr: 0x10000B5C8, symSize: 0xDC }
  - { offsetInCU: 0x2807B, offset: 0xAC781, size: 0x8, addend: 0x0, symName: __ZNSt3__110unique_ptrINS_11__hash_nodeINS_17__hash_value_typeINS_12basic_stringIcNS_11char_traitsIcEENS_9allocatorIcEEEEP8TemplateEEPvEENS_22__hash_node_destructorINS6_ISD_EEEEED1B8ue170006Ev, symObjAddr: 0x22EC, symBinAddr: 0x10000B144, symSize: 0x4C }
  - { offsetInCU: 0x286E0, offset: 0xACDE6, size: 0x8, addend: 0x0, symName: __ZNSt3__112__hash_tableINS_17__hash_value_typeINS_12basic_stringIcNS_11char_traitsIcEENS_9allocatorIcEEEEP8TemplateEENS_22__unordered_map_hasherIS7_SA_NS_4hashIS7_EENS_8equal_toIS7_EELb1EEENS_21__unordered_map_equalIS7_SA_SF_SD_Lb1EEENS5_ISA_EEE11__do_rehashILb1EEEvm, symObjAddr: 0x284C, symBinAddr: 0x10000B6A4, symSize: 0x158 }
  - { offsetInCU: 0x28F14, offset: 0xAD61A, size: 0x8, addend: 0x0, symName: __ZNSt3__16vectorINS_12basic_stringIcNS_11char_traitsIcEENS_9allocatorIcEEEENS4_IS6_EEEC2ERKS8_.cold.1, symObjAddr: 0x3A78, symBinAddr: 0x1000187F0, symSize: 0x60 }
  - { offsetInCU: 0x29583, offset: 0xADC89, size: 0x8, addend: 0x0, symName: __ZNSt3__112__hash_tableINS_17__hash_value_typeINS_12basic_stringIcNS_11char_traitsIcEENS_9allocatorIcEEEES7_EENS_22__unordered_map_hasherIS7_S8_NS_4hashIS7_EENS_8equal_toIS7_EELb1EEENS_21__unordered_map_equalIS7_S8_SD_SB_Lb1EEENS5_IS8_EEE8__rehashILb1EEEvm, symObjAddr: 0x32B0, symBinAddr: 0x10000BE04, symSize: 0xDC }
  - { offsetInCU: 0x29669, offset: 0xADD6F, size: 0x8, addend: 0x0, symName: __ZNSt3__110unique_ptrINS_11__hash_nodeINS_17__hash_value_typeINS_12basic_stringIcNS_11char_traitsIcEENS_9allocatorIcEEEES8_EEPvEENS_22__hash_node_destructorINS6_ISB_EEEEED1B8ue170006Ev, symObjAddr: 0x3248, symBinAddr: 0x10000BD9C, symSize: 0x68 }
  - { offsetInCU: 0x29A90, offset: 0xAE196, size: 0x8, addend: 0x0, symName: __ZNSt3__112__hash_tableINS_17__hash_value_typeINS_12basic_stringIcNS_11char_traitsIcEENS_9allocatorIcEEEES7_EENS_22__unordered_map_hasherIS7_S8_NS_4hashIS7_EENS_8equal_toIS7_EELb1EEENS_21__unordered_map_equalIS7_S8_SD_SB_Lb1EEENS5_IS8_EEE11__do_rehashILb1EEEvm, symObjAddr: 0x338C, symBinAddr: 0x10000BEE0, symSize: 0x158 }
  - { offsetInCU: 0x2A168, offset: 0xAE86E, size: 0x8, addend: 0x0, symName: __ZNSt3__114__split_bufferINS_12basic_stringIcNS_11char_traitsIcEENS_9allocatorIcEEEERNS4_IS6_EEED1Ev, symObjAddr: 0x364C, symBinAddr: 0x10000C038, symSize: 0x5C }
  - { offsetInCU: 0x52, offset: 0xAEC2F, size: 0x8, addend: 0x0, symName: _HELPER_DOMAIN, symObjAddr: 0x211888, symBinAddr: 0x100020018, symSize: 0x0 }
  - { offsetInCU: 0x107CA, offset: 0xBF3A7, size: 0x8, addend: 0x0, symName: __ZNSt3__135__uninitialized_allocator_copy_implB8ue170006INS_9allocatorINS_12basic_stringIcNS_11char_traitsIcEENS1_IcEEEEEEPKS6_S9_PS6_EET2_RT_T0_T1_SB_, symObjAddr: 0xB0A0, symBinAddr: 0x100017338, symSize: 0x124 }
  - { offsetInCU: 0x13F4D, offset: 0xC2B2A, size: 0x8, addend: 0x0, symName: __ZNSt3__130__uninitialized_allocator_copyB8ue170006INS_9allocatorINS_5tupleIJNS_12basic_stringIcNS_11char_traitsIcEENS1_IcEEEES7_S7_P15TemplateManagerS7_EEEEEPKSA_SD_PSA_EET2_RT_T0_T1_SF_, symObjAddr: 0xB96C, symBinAddr: 0x1000176A0, symSize: 0x78 }
  - { offsetInCU: 0x14497, offset: 0xC3074, size: 0x8, addend: 0x0, symName: __ZNSt3__130__uninitialized_allocator_copyB8ue170006INS_9allocatorINS_4pairINS_12basic_stringIcNS_11char_traitsIcEENS1_IcEEEENS_6vectorIS7_NS1_IS7_EEEEEEEEPKSB_SE_PSB_EET2_RT_T0_T1_SG_, symObjAddr: 0xC118, symBinAddr: 0x100017E4C, symSize: 0x78 }
  - { offsetInCU: 0x17A9A, offset: 0xC6677, size: 0x8, addend: 0x0, symName: __ZNSt3__130__uninitialized_allocator_copyB8ue170006INS_9allocatorINS_5tupleIJNS_12basic_stringIcNS_11char_traitsIcEENS1_IcEEEES7_S7_P15TemplateManagerS7_EEEEENS_11__wrap_iterIPSA_EESE_SD_EET2_RT_T0_T1_SF_, symObjAddr: 0xBF14, symBinAddr: 0x100017C48, symSize: 0x78 }
  - { offsetInCU: 0x17D0B, offset: 0xC68E8, size: 0x8, addend: 0x0, symName: __ZNSt3__127__memberwise_forward_assignB8ue170006INS_5tupleIJNS_12basic_stringIcNS_11char_traitsIcEENS_9allocatorIcEEEES7_S7_P15TemplateManagerS7_EEESA_JS7_S7_S7_S9_S7_EJLm0ELm1ELm2ELm3ELm4EEEEvRT_OT0_NS_13__tuple_typesIJDpT1_EEENS_15__tuple_indicesIJXspT2_EEEE, symObjAddr: 0xBF8C, symBinAddr: 0x100017CC0, symSize: 0xE4 }
  - { offsetInCU: 0x18C62, offset: 0xC783F, size: 0x8, addend: 0x0, symName: __ZNSt3__127__memberwise_forward_assignB8ue170006INS_5tupleIJNS_12basic_stringIcNS_11char_traitsIcEENS_9allocatorIcEEEES7_NS_6vectorIS7_NS5_IS7_EEEESA_EEESB_JS7_S7_SA_SA_EJLm0ELm1ELm2ELm3EEEEvRT_OT0_NS_13__tuple_typesIJDpT1_EEENS_15__tuple_indicesIJXspT2_EEEE, symObjAddr: 0xCDA8, symBinAddr: 0x100018500, symSize: 0x15C }
  - { offsetInCU: 0x1961A, offset: 0xC81F7, size: 0x8, addend: 0x0, symName: __ZNSt3__121__unwrap_and_dispatchB8ue170006INS_10__overloadINS_11__copy_loopINS_17_ClassicAlgPolicyEEENS_14__copy_trivialEEENS_11__wrap_iterIPNS_5tupleIJNS_12basic_stringIcNS_11char_traitsIcEENS_9allocatorIcEEEESE_NS_6vectorISE_NSC_ISE_EEEESH_EEEEESK_SJ_Li0EEENS_4pairIT0_T2_EESM_T1_SN_, symObjAddr: 0xCF04, symBinAddr: 0x10001865C, symSize: 0xBC }
  - { offsetInCU: 0x1A49F, offset: 0xC907C, size: 0x8, addend: 0x0, symName: _TEMPLATE_DOMAIN, symObjAddr: 0x2118A0, symBinAddr: 0x100020030, symSize: 0x0 }
  - { offsetInCU: 0x1B4D6, offset: 0xCA0B3, size: 0x8, addend: 0x0, symName: __ZNSt3__16vectorINS_5tupleIJNS_12basic_stringIcNS_11char_traitsIcEENS_9allocatorIcEEEES7_NS0_IS7_NS5_IS7_EEEES9_EEENS5_ISA_EEE26__swap_out_circular_bufferERNS_14__split_bufferISA_RSB_EEPSA_, symObjAddr: 0xCBDC, symBinAddr: 0x100018334, symSize: 0x17C }
  - { offsetInCU: 0x1ECB2, offset: 0xCD88F, size: 0x8, addend: 0x0, symName: __Z21testTokenizerProviderv, symObjAddr: 0x0, symBinAddr: 0x10000C464, symSize: 0x79C }
  - { offsetInCU: 0x23257, offset: 0xD1E34, size: 0x8, addend: 0x0, symName: __ZNSt3__112__tuple_implINS_15__tuple_indicesIJLm0ELm1ELm2ELm3EEEEJNS_12basic_stringIcNS_11char_traitsIcEENS_9allocatorIcEEEES8_S8_NS_6vectorIS8_NS6_IS8_EEEEEEC2B8ue170006INS_5tupleIJPKcSG_SG_SB_EEEvEEOT_, symObjAddr: 0x9938, symBinAddr: 0x100015C94, symSize: 0x218 }
  - { offsetInCU: 0x23FC0, offset: 0xD2B9D, size: 0x8, addend: 0x0, symName: __ZNSt3__16vectorINS_5tupleIJNS_12basic_stringIcNS_11char_traitsIcEENS_9allocatorIcEEEES7_S7_NS0_IS7_NS5_IS7_EEEEEEENS5_ISA_EEEC1B8ue170006ESt16initializer_listISA_E, symObjAddr: 0x79C, symBinAddr: 0x10000CC00, symSize: 0x114 }
  - { offsetInCU: 0x244E7, offset: 0xD30C4, size: 0x8, addend: 0x0, symName: __ZNSt3__15tupleIJNS_12basic_stringIcNS_11char_traitsIcEENS_9allocatorIcEEEES6_S6_NS_6vectorIS6_NS4_IS6_EEEEEED1Ev, symObjAddr: 0x8B0, symBinAddr: 0x10000CD14, symSize: 0xB0 }
  - { offsetInCU: 0x24B89, offset: 0xD3766, size: 0x8, addend: 0x0, symName: __ZNSt3__15tupleIJPKcS2_S2_NS_6vectorINS_12basic_stringIcNS_11char_traitsIcEENS_9allocatorIcEEEENS7_IS9_EEEEEED1Ev, symObjAddr: 0x960, symBinAddr: 0x10000CDC4, symSize: 0x6C }
  - { offsetInCU: 0x2543B, offset: 0xD4018, size: 0x8, addend: 0x0, symName: __ZNSt3__112__tuple_implINS_15__tuple_indicesIJLm0ELm1ELm2ELm3EEEEJNS_12basic_stringIcNS_11char_traitsIcEENS_9allocatorIcEEEES8_S8_NS_6vectorIS8_NS6_IS8_EEEEEEC2ERKSC_, symObjAddr: 0x9B50, symBinAddr: 0x100015EAC, symSize: 0x260 }
  - { offsetInCU: 0x26280, offset: 0xD4E5D, size: 0x8, addend: 0x0, symName: __ZNKSt3__16vectorINS_5tupleIJNS_12basic_stringIcNS_11char_traitsIcEENS_9allocatorIcEEEES7_S7_NS0_IS7_NS5_IS7_EEEEEEENS5_ISA_EEE20__throw_length_errorB8ue170006Ev, symObjAddr: 0xB22C, symBinAddr: 0x10001745C, symSize: 0x14 }
  - { offsetInCU: 0x262AA, offset: 0xD4E87, size: 0x8, addend: 0x0, symName: __ZNSt3__19allocatorINS_5tupleIJNS_12basic_stringIcNS_11char_traitsIcEENS0_IcEEEES6_S6_NS_6vectorIS6_NS0_IS6_EEEEEEEE7destroyB8ue170006EPSA_, symObjAddr: 0xB240, symBinAddr: 0x100017470, symSize: 0xB4 }
  - { offsetInCU: 0x262B5, offset: 0xD4E92, size: 0x8, addend: 0x0, symName: __ZNSt3__19allocatorINS_5tupleIJNS_12basic_stringIcNS_11char_traitsIcEENS0_IcEEEES6_S6_NS_6vectorIS6_NS0_IS6_EEEEEEEE7destroyB8ue170006EPSA_, symObjAddr: 0xB240, symBinAddr: 0x100017470, symSize: 0xB4 }
  - { offsetInCU: 0x26CAB, offset: 0xD5888, size: 0x8, addend: 0x0, symName: __Z13testTokenizerv, symObjAddr: 0xA38, symBinAddr: 0x10000CE30, symSize: 0x914 }
  - { offsetInCU: 0x29DBF, offset: 0xD899C, size: 0x8, addend: 0x0, symName: __ZNSt3__16vectorINS_5tupleIJNS_12basic_stringIcNS_11char_traitsIcEENS_9allocatorIcEEEES7_S7_NS0_IS7_NS5_IS7_EEEEEEENS5_ISA_EEED1B8ue170006Ev, symObjAddr: 0x13DC, symBinAddr: 0x10000D744, symSize: 0x64 }
  - { offsetInCU: 0x2A8A3, offset: 0xD9480, size: 0x8, addend: 0x0, symName: __Z23testToLowerCaseProviderv, symObjAddr: 0x1440, symBinAddr: 0x10000D7A8, symSize: 0x3F0 }
  - { offsetInCU: 0x2C691, offset: 0xDB26E, size: 0x8, addend: 0x0, symName: __ZNSt3__112__tuple_implINS_15__tuple_indicesIJLm0ELm1ELm2EEEEJPKcNS_12basic_stringIcNS_11char_traitsIcEENS_9allocatorIcEEEESA_EEC2B8ue170006IJLm0ELm1ELm2EEJS4_SA_SA_EJEJEJRA21_S3_RSA_SF_EEENS1_IJXspT_EEEENS_13__tuple_typesIJDpT0_EEENS1_IJXspT1_EEEENSH_IJDpT2_EEEDpOT3_, symObjAddr: 0x9DB0, symBinAddr: 0x10001610C, symSize: 0x160 }
  - { offsetInCU: 0x2CF9B, offset: 0xDBB78, size: 0x8, addend: 0x0, symName: __ZNSt3__112__tuple_implINS_15__tuple_indicesIJLm0ELm1ELm2EEEEJNS_12basic_stringIcNS_11char_traitsIcEENS_9allocatorIcEEEES8_S8_EEC2B8ue170006INS_5tupleIJPKcSD_SD_EEEvEEOT_, symObjAddr: 0x9F10, symBinAddr: 0x10001626C, symSize: 0x1F8 }
  - { offsetInCU: 0x2DC89, offset: 0xDC866, size: 0x8, addend: 0x0, symName: __ZNSt3__16vectorINS_5tupleIJNS_12basic_stringIcNS_11char_traitsIcEENS_9allocatorIcEEEES7_S7_EEENS5_IS8_EEEC1B8ue170006ESt16initializer_listIS8_E, symObjAddr: 0x1830, symBinAddr: 0x10000DB98, symSize: 0xB0 }
  - { offsetInCU: 0x2DE5C, offset: 0xDCA39, size: 0x8, addend: 0x0, symName: __ZNSt3__15tupleIJNS_12basic_stringIcNS_11char_traitsIcEENS_9allocatorIcEEEES6_S6_EED1Ev, symObjAddr: 0x18E0, symBinAddr: 0x10000DC48, symSize: 0x64 }
  - { offsetInCU: 0x2E238, offset: 0xDCE15, size: 0x8, addend: 0x0, symName: __ZNSt3__15tupleIJPKcNS_12basic_stringIcNS_11char_traitsIcEENS_9allocatorIcEEEES8_EED1Ev, symObjAddr: 0x1944, symBinAddr: 0x10000DCAC, symSize: 0x4C }
  - { offsetInCU: 0x2E60B, offset: 0xDD1E8, size: 0x8, addend: 0x0, symName: __ZNSt3__16vectorINS_5tupleIJNS_12basic_stringIcNS_11char_traitsIcEENS_9allocatorIcEEEES7_S7_EEENS5_IS8_EEE18__construct_at_endIPKS8_SD_EEvT_T0_m, symObjAddr: 0xB7F0, symBinAddr: 0x100017524, symSize: 0x88 }
  - { offsetInCU: 0x2E996, offset: 0xDD573, size: 0x8, addend: 0x0, symName: __ZNKSt3__16vectorINS_5tupleIJNS_12basic_stringIcNS_11char_traitsIcEENS_9allocatorIcEEEES7_S7_EEENS5_IS8_EEE20__throw_length_errorB8ue170006Ev, symObjAddr: 0xB878, symBinAddr: 0x1000175AC, symSize: 0x14 }
  - { offsetInCU: 0x2E9C0, offset: 0xDD59D, size: 0x8, addend: 0x0, symName: __ZNSt3__16vectorINS_5tupleIJNS_12basic_stringIcNS_11char_traitsIcEENS_9allocatorIcEEEES7_S7_P15TemplateManagerS7_EEENS5_ISA_EEE16__destroy_vectorclB8ue170006Ev, symObjAddr: 0xB88C, symBinAddr: 0x1000175C0, symSize: 0xCC }
  - { offsetInCU: 0x2E9CB, offset: 0xDD5A8, size: 0x8, addend: 0x0, symName: __ZNSt3__16vectorINS_5tupleIJNS_12basic_stringIcNS_11char_traitsIcEENS_9allocatorIcEEEES7_S7_EEENS5_IS8_EEEC1B8ue170006ESt16initializer_listIS8_E.cold.1, symObjAddr: 0xD1D0, symBinAddr: 0x100018850, symSize: 0x88 }
  - { offsetInCU: 0x2F0D3, offset: 0xDDCB0, size: 0x8, addend: 0x0, symName: __Z15testToLowerCasev, symObjAddr: 0x1990, symBinAddr: 0x10000DCF8, symSize: 0x7E4 }
  - { offsetInCU: 0x31B4C, offset: 0xE0729, size: 0x8, addend: 0x0, symName: __ZNSt3__112__tuple_implINS_15__tuple_indicesIJLm0ELm1ELm2EEEEJNS_12basic_stringIcNS_11char_traitsIcEENS_9allocatorIcEEEES8_S8_EEC2ERKS9_, symObjAddr: 0xA108, symBinAddr: 0x100016464, symSize: 0x21C }
  - { offsetInCU: 0x3281F, offset: 0xE13FC, size: 0x8, addend: 0x0, symName: __ZNSt3__16vectorINS_5tupleIJNS_12basic_stringIcNS_11char_traitsIcEENS_9allocatorIcEEEES7_S7_EEENS5_IS8_EEED1B8ue170006Ev, symObjAddr: 0x2174, symBinAddr: 0x10000E4DC, symSize: 0x98 }
  - { offsetInCU: 0x379AA, offset: 0xE6587, size: 0x8, addend: 0x0, symName: __Z22testParseLinksProviderv, symObjAddr: 0x220C, symBinAddr: 0x10000E574, symSize: 0x133C }
  - { offsetInCU: 0x4253B, offset: 0xF1118, size: 0x8, addend: 0x0, symName: __ZNSt3__112__tuple_implINS_15__tuple_indicesIJLm0ELm1ELm2ELm3ELm4EEEEJNS_12basic_stringIcNS_11char_traitsIcEENS_9allocatorIcEEEES8_S8_P15TemplateManagerS8_EEC2B8ue170006INS_5tupleIJPKcSF_S8_DnSF_EEEvEEOT_, symObjAddr: 0xA324, symBinAddr: 0x100016680, symSize: 0x230 }
  - { offsetInCU: 0x433F2, offset: 0xF1FCF, size: 0x8, addend: 0x0, symName: __ZNSt3__112__tuple_implINS_15__tuple_indicesIJLm0ELm1ELm2ELm3ELm4EEEEJNS_12basic_stringIcNS_11char_traitsIcEENS_9allocatorIcEEEES8_S8_P15TemplateManagerS8_EEC2B8ue170006INS_5tupleIJPKcSF_S8_SA_SF_EEEvEEOT_, symObjAddr: 0xA554, symBinAddr: 0x1000168B0, symSize: 0x234 }
  - { offsetInCU: 0x442A9, offset: 0xF2E86, size: 0x8, addend: 0x0, symName: __ZNSt3__16vectorINS_5tupleIJNS_12basic_stringIcNS_11char_traitsIcEENS_9allocatorIcEEEES7_S7_P15TemplateManagerS7_EEENS5_ISA_EEE18__insert_with_sizeB8ue170006INS_11__wrap_iterIPSA_EESG_EESG_NSE_IPKSA_EET_T0_l, symObjAddr: 0xB9E4, symBinAddr: 0x100017718, symSize: 0x500 }
  - { offsetInCU: 0x45BFC, offset: 0xF47D9, size: 0x8, addend: 0x0, symName: __ZNSt3__16vectorINS_5tupleIJNS_12basic_stringIcNS_11char_traitsIcEENS_9allocatorIcEEEES7_S7_P15TemplateManagerS7_EEENS5_ISA_EEE16__destroy_vectorclB8ue170006Ev, symObjAddr: 0xB88C, symBinAddr: 0x1000175C0, symSize: 0xCC }
  - { offsetInCU: 0x461F7, offset: 0xF4DD4, size: 0x8, addend: 0x0, symName: __ZNSt3__15tupleIJNS_12basic_stringIcNS_11char_traitsIcEENS_9allocatorIcEEEES6_S6_P15TemplateManagerS6_EED1Ev, symObjAddr: 0x3548, symBinAddr: 0x10000F8B0, symSize: 0x7C }
  - { offsetInCU: 0x46799, offset: 0xF5376, size: 0x8, addend: 0x0, symName: __Z14testParseLinksv, symObjAddr: 0x35C4, symBinAddr: 0x10000F92C, symSize: 0x984 }
  - { offsetInCU: 0x49BE3, offset: 0xF87C0, size: 0x8, addend: 0x0, symName: __ZNSt3__112__tuple_implINS_15__tuple_indicesIJLm0ELm1ELm2ELm3ELm4EEEEJNS_12basic_stringIcNS_11char_traitsIcEENS_9allocatorIcEEEES8_S8_P15TemplateManagerS8_EEC2ERKSB_, symObjAddr: 0xA788, symBinAddr: 0x100016AE4, symSize: 0x2E4 }
  - { offsetInCU: 0x4AD43, offset: 0xF9920, size: 0x8, addend: 0x0, symName: __Z11testHelpersv, symObjAddr: 0x3F48, symBinAddr: 0x1000102B0, symSize: 0x18 }
  - { offsetInCU: 0x4AEF3, offset: 0xF9AD0, size: 0x8, addend: 0x0, symName: __Z11printVectorNSt3__16vectorINS_12basic_stringIcNS_11char_traitsIcEENS_9allocatorIcEEEENS4_IS6_EEEE, symObjAddr: 0x3F60, symBinAddr: 0x1000102C8, symSize: 0x2DC }
  - { offsetInCU: 0x4C4BB, offset: 0xFB098, size: 0x8, addend: 0x0, symName: __Z39testGenerateTemplateArgValueMapProviderv, symObjAddr: 0x423C, symBinAddr: 0x1000105A4, symSize: 0x6A4 }
  - { offsetInCU: 0x4FA40, offset: 0xFE61D, size: 0x8, addend: 0x0, symName: __ZNSt3__16vectorINS_4pairINS_12basic_stringIcNS_11char_traitsIcEENS_9allocatorIcEEEENS0_IS7_NS5_IS7_EEEEEENS5_ISA_EEE16__destroy_vectorclB8ue170006Ev, symObjAddr: 0xC190, symBinAddr: 0x100017EC4, symSize: 0xD8 }
  - { offsetInCU: 0x4FFA7, offset: 0xFEB84, size: 0x8, addend: 0x0, symName: __ZNSt3__14pairINS_12basic_stringIcNS_11char_traitsIcEENS_9allocatorIcEEEENS_6vectorIS6_NS4_IS6_EEEEED1Ev, symObjAddr: 0x48E0, symBinAddr: 0x100010C48, symSize: 0x7C }
  - { offsetInCU: 0x503A4, offset: 0xFEF81, size: 0x8, addend: 0x0, symName: __Z39testGenerateTemplateArgValueMapProviderv.cold.1, symObjAddr: 0xD258, symBinAddr: 0x1000188D8, symSize: 0x48 }
  - { offsetInCU: 0x505A5, offset: 0xFF182, size: 0x8, addend: 0x0, symName: __ZNSt3__14pairIPKcNS_6vectorINS_12basic_stringIcNS_11char_traitsIcEENS_9allocatorIcEEEENS7_IS9_EEEEED1Ev, symObjAddr: 0x495C, symBinAddr: 0x100010CC4, symSize: 0x6C }
  - { offsetInCU: 0x50A7A, offset: 0xFF657, size: 0x8, addend: 0x0, symName: __Z31testGenerateTemplateArgValueMapv, symObjAddr: 0x49C8, symBinAddr: 0x100010D30, symSize: 0x62C }
  - { offsetInCU: 0x526AF, offset: 0x10128C, size: 0x8, addend: 0x0, symName: __ZNSt3__14pairINS_12basic_stringIcNS_11char_traitsIcEENS_9allocatorIcEEEENS_6vectorIS6_NS4_IS6_EEEEEC2B8ue170006ERKSA_, symObjAddr: 0xAA6C, symBinAddr: 0x100016DC8, symSize: 0xDC }
  - { offsetInCU: 0x54DB0, offset: 0x10398D, size: 0x8, addend: 0x0, symName: __Z39testParseAndSaveTemplateContentProviderv, symObjAddr: 0x4FF4, symBinAddr: 0x10001135C, symSize: 0x29B0 }
  - { offsetInCU: 0x6BC5C, offset: 0x11A839, size: 0x8, addend: 0x0, symName: __ZNSt3__112__tuple_implINS_15__tuple_indicesIJLm0ELm1ELm2ELm3EEEEJNS_12basic_stringIcNS_11char_traitsIcEENS_9allocatorIcEEEES8_NS_6vectorIS8_NS6_IS8_EEEESB_EEC2B8ue170006INS_5tupleIJPKcSG_SB_SB_EEEvEEOT_, symObjAddr: 0xAB48, symBinAddr: 0x100016EA4, symSize: 0x18C }
  - { offsetInCU: 0x6C59E, offset: 0x11B17B, size: 0x8, addend: 0x0, symName: __ZNSt3__16vectorINS_5tupleIJNS_12basic_stringIcNS_11char_traitsIcEENS_9allocatorIcEEEES7_NS0_IS7_NS5_IS7_EEEES9_EEENS5_ISA_EEEC1B8ue170006ESt16initializer_listISA_E, symObjAddr: 0x79A4, symBinAddr: 0x100013D0C, symSize: 0x104 }
  - { offsetInCU: 0x6CB7D, offset: 0x11B75A, size: 0x8, addend: 0x0, symName: __ZNSt3__112__tuple_implINS_15__tuple_indicesIJLm0ELm1ELm2ELm3EEEEJNS_12basic_stringIcNS_11char_traitsIcEENS_9allocatorIcEEEES8_NS_6vectorIS8_NS6_IS8_EEEESB_EED2Ev, symObjAddr: 0xACD4, symBinAddr: 0x100017030, symSize: 0xDC }
  - { offsetInCU: 0x6D37B, offset: 0x11BF58, size: 0x8, addend: 0x0, symName: __ZNSt3__16vectorINS_5tupleIJNS_12basic_stringIcNS_11char_traitsIcEENS_9allocatorIcEEEES7_NS0_IS7_NS5_IS7_EEEES9_EEENS5_ISA_EEE18__insert_with_sizeB8ue170006INS_11__wrap_iterIPSA_EESG_EESG_NSE_IPKSA_EET_T0_l, symObjAddr: 0xC858, symBinAddr: 0x100017FB0, symSize: 0x384 }
  - { offsetInCU: 0x6E255, offset: 0x11CE32, size: 0x8, addend: 0x0, symName: __ZNSt3__16vectorINS_5tupleIJNS_12basic_stringIcNS_11char_traitsIcEENS_9allocatorIcEEEES7_NS0_IS7_NS5_IS7_EEEES9_EEENS5_ISA_EEED1B8ue170006Ev, symObjAddr: 0x7B58, symBinAddr: 0x100013EC0, symSize: 0x50 }
  - { offsetInCU: 0x6E464, offset: 0x11D041, size: 0x8, addend: 0x0, symName: __ZNSt3__15tupleIJPKcS2_NS_6vectorINS_12basic_stringIcNS_11char_traitsIcEENS_9allocatorIcEEEENS7_IS9_EEEESB_EED1Ev, symObjAddr: 0x7AA8, symBinAddr: 0x100013E10, symSize: 0xB0 }
  - { offsetInCU: 0x6ED3E, offset: 0x11D91B, size: 0x8, addend: 0x0, symName: __ZNSt3__112__tuple_implINS_15__tuple_indicesIJLm0ELm1ELm2ELm3EEEEJNS_12basic_stringIcNS_11char_traitsIcEENS_9allocatorIcEEEES8_NS_6vectorIS8_NS6_IS8_EEEESB_EEC2ERKSC_, symObjAddr: 0xAE1C, symBinAddr: 0x100017178, symSize: 0x1C0 }
  - { offsetInCU: 0x6F776, offset: 0x11E353, size: 0x8, addend: 0x0, symName: __ZNKSt3__16vectorINS_5tupleIJNS_12basic_stringIcNS_11char_traitsIcEENS_9allocatorIcEEEES7_NS0_IS7_NS5_IS7_EEEES9_EEENS5_ISA_EEE20__throw_length_errorB8ue170006Ev, symObjAddr: 0xC844, symBinAddr: 0x100017F9C, symSize: 0x14 }
  - { offsetInCU: 0x6F7A0, offset: 0x11E37D, size: 0x8, addend: 0x0, symName: __ZNSt3__16vectorINS_5tupleIJNS_12basic_stringIcNS_11char_traitsIcEENS_9allocatorIcEEEES7_NS0_IS7_NS5_IS7_EEEES9_EEENS5_ISA_EEE18__insert_with_sizeB8ue170006INS_11__wrap_iterIPSA_EESG_EESG_NSE_IPKSA_EET_T0_l, symObjAddr: 0xC858, symBinAddr: 0x100017FB0, symSize: 0x384 }
  - { offsetInCU: 0x6F86F, offset: 0x11E44C, size: 0x8, addend: 0x0, symName: __Z31testParseAndSaveTemplateContentv, symObjAddr: 0x7BA8, symBinAddr: 0x100013F10, symSize: 0xF54 }
  - { offsetInCU: 0x7446E, offset: 0x12304B, size: 0x8, addend: 0x0, symName: __Z27testTemplateManagerProviderv, symObjAddr: 0x8AFC, symBinAddr: 0x100014E64, symSize: 0x1D8 }
  - { offsetInCU: 0x74DC3, offset: 0x1239A0, size: 0x8, addend: 0x0, symName: __Z19testTemplateManagerv, symObjAddr: 0x8CD4, symBinAddr: 0x10001503C, symSize: 0x9E4 }
  - { offsetInCU: 0x780B9, offset: 0x126C96, size: 0x8, addend: 0x0, symName: __Z12testTemplatev, symObjAddr: 0x96B8, symBinAddr: 0x100015A20, symSize: 0x18 }
  - { offsetInCU: 0x78114, offset: 0x126CF1, size: 0x8, addend: 0x0, symName: __Z8runTestsv, symObjAddr: 0x96D0, symBinAddr: 0x100015A38, symSize: 0x24 }
  - { offsetInCU: 0x78220, offset: 0x126DFD, size: 0x8, addend: 0x0, symName: _main, symObjAddr: 0x96F4, symBinAddr: 0x100015A5C, symSize: 0x238 }
  - { offsetInCU: 0x7948D, offset: 0x12806A, size: 0x8, addend: 0x0, symName: __ZNSt3__112__tuple_leafILm2ENS_6vectorINS_12basic_stringIcNS_11char_traitsIcEENS_9allocatorIcEEEENS5_IS7_EEEELb0EED2Ev, symObjAddr: 0xADB0, symBinAddr: 0x10001710C, symSize: 0x6C }
  - { offsetInCU: 0x797FA, offset: 0x1283D7, size: 0x8, addend: 0x0, symName: __ZNSt3__135__uninitialized_allocator_copy_implB8ue170006INS_9allocatorINS_12basic_stringIcNS_11char_traitsIcEENS1_IcEEEEEEPKS6_S9_PS6_EET2_RT_T0_T1_SB_, symObjAddr: 0xB0A0, symBinAddr: 0x100017338, symSize: 0x124 }
  - { offsetInCU: 0x79DE8, offset: 0x1289C5, size: 0x8, addend: 0x0, symName: __ZNSt3__16vectorINS_12basic_stringIcNS_11char_traitsIcEENS_9allocatorIcEEEENS4_IS6_EEEC2ERKS8_.cold.1, symObjAddr: 0xD2A0, symBinAddr: 0x100018920, symSize: 0x4C }
  - { offsetInCU: 0x7A214, offset: 0x128DF1, size: 0x8, addend: 0x0, symName: __ZNSt3__16vectorINS_5tupleIJNS_12basic_stringIcNS_11char_traitsIcEENS_9allocatorIcEEEES7_S7_EEENS5_IS8_EEE18__construct_at_endIPKS8_SD_EEvT_T0_m.cold.1, symObjAddr: 0xD2EC, symBinAddr: 0x10001896C, symSize: 0x54 }
  - { offsetInCU: 0x7A6D3, offset: 0x1292B0, size: 0x8, addend: 0x0, symName: __ZNKSt3__16vectorINS_5tupleIJNS_12basic_stringIcNS_11char_traitsIcEENS_9allocatorIcEEEES7_S7_P15TemplateManagerS7_EEENS5_ISA_EEE20__throw_length_errorB8ue170006Ev, symObjAddr: 0xB958, symBinAddr: 0x10001768C, symSize: 0x14 }
  - { offsetInCU: 0x7A6FD, offset: 0x1292DA, size: 0x8, addend: 0x0, symName: __ZNSt3__130__uninitialized_allocator_copyB8ue170006INS_9allocatorINS_5tupleIJNS_12basic_stringIcNS_11char_traitsIcEENS1_IcEEEES7_S7_P15TemplateManagerS7_EEEEEPKSA_SD_PSA_EET2_RT_T0_T1_SF_, symObjAddr: 0xB96C, symBinAddr: 0x1000176A0, symSize: 0x78 }
  - { offsetInCU: 0x7A7FC, offset: 0x1293D9, size: 0x8, addend: 0x0, symName: __ZNSt3__130__uninitialized_allocator_copyB8ue170006INS_9allocatorINS_5tupleIJNS_12basic_stringIcNS_11char_traitsIcEENS1_IcEEEES7_S7_P15TemplateManagerS7_EEEEEPKSA_SD_PSA_EET2_RT_T0_T1_SF_.cold.1, symObjAddr: 0xD340, symBinAddr: 0x1000189C0, symSize: 0x64 }
  - { offsetInCU: 0x7B4A7, offset: 0x12A084, size: 0x8, addend: 0x0, symName: __ZNSt3__114__split_bufferINS_5tupleIJNS_12basic_stringIcNS_11char_traitsIcEENS_9allocatorIcEEEES7_S7_P15TemplateManagerS7_EEERNS5_ISA_EEED1Ev, symObjAddr: 0xBEE4, symBinAddr: 0x100017C18, symSize: 0x30 }
  - { offsetInCU: 0x7B5A9, offset: 0x12A186, size: 0x8, addend: 0x0, symName: __ZNSt3__114__split_bufferINS_5tupleIJNS_12basic_stringIcNS_11char_traitsIcEENS_9allocatorIcEEEES7_S7_P15TemplateManagerS7_EEERNS5_ISA_EEE5clearB8ue170006Ev, symObjAddr: 0xC070, symBinAddr: 0x100017DA4, symSize: 0xA8 }
  - { offsetInCU: 0x7BB50, offset: 0x12A72D, size: 0x8, addend: 0x0, symName: __ZNSt3__130__uninitialized_allocator_copyB8ue170006INS_9allocatorINS_5tupleIJNS_12basic_stringIcNS_11char_traitsIcEENS1_IcEEEES7_S7_P15TemplateManagerS7_EEEEENS_11__wrap_iterIPSA_EESE_SD_EET2_RT_T0_T1_SF_.cold.1, symObjAddr: 0xD3A4, symBinAddr: 0x100018A24, symSize: 0x64 }
  - { offsetInCU: 0x7C171, offset: 0x12AD4E, size: 0x8, addend: 0x0, symName: __ZNSt3__130__uninitialized_allocator_copyB8ue170006INS_9allocatorINS_4pairINS_12basic_stringIcNS_11char_traitsIcEENS1_IcEEEENS_6vectorIS7_NS1_IS7_EEEEEEEEPKSB_SE_PSB_EET2_RT_T0_T1_SG_.cold.1, symObjAddr: 0xD408, symBinAddr: 0x100018A88, symSize: 0x80 }
  - { offsetInCU: 0x7D64B, offset: 0x12C228, size: 0x8, addend: 0x0, symName: __ZNSt3__114__split_bufferINS_5tupleIJNS_12basic_stringIcNS_11char_traitsIcEENS_9allocatorIcEEEES7_NS_6vectorIS7_NS5_IS7_EEEESA_EEERNS5_ISB_EEED1Ev, symObjAddr: 0xCD58, symBinAddr: 0x1000184B0, symSize: 0x50 }
  - { offsetInCU: 0x7E169, offset: 0x12CD46, size: 0x8, addend: 0x0, symName: _OUTLINED_FUNCTION_0, symObjAddr: 0xD488, symBinAddr: 0x100018718, symSize: 0xC }
  - { offsetInCU: 0x7E181, offset: 0x12CD5E, size: 0x8, addend: 0x0, symName: _OUTLINED_FUNCTION_1, symObjAddr: 0xD494, symBinAddr: 0x100018724, symSize: 0x8 }
  - { offsetInCU: 0x7E199, offset: 0x12CD76, size: 0x8, addend: 0x0, symName: _OUTLINED_FUNCTION_2, symObjAddr: 0xD49C, symBinAddr: 0x10001872C, symSize: 0x18 }
  - { offsetInCU: 0x7E1B1, offset: 0x12CD8E, size: 0x8, addend: 0x0, symName: _OUTLINED_FUNCTION_3, symObjAddr: 0xD4B4, symBinAddr: 0x100018744, symSize: 0xC }
  - { offsetInCU: 0x7E1C9, offset: 0x12CDA6, size: 0x8, addend: 0x0, symName: _OUTLINED_FUNCTION_4, symObjAddr: 0xD4C0, symBinAddr: 0x100018750, symSize: 0xC }
  - { offsetInCU: 0x7E1E1, offset: 0x12CDBE, size: 0x8, addend: 0x0, symName: _OUTLINED_FUNCTION_5, symObjAddr: 0xD4CC, symBinAddr: 0x10001875C, symSize: 0x8 }
...
